target datalayout = "e-m:e-p270:32:32-p271:32:32-p272:64:64-i64:64-i128:128-f80:128-n8:16:32:64-S128"
target triple = "x86_64-pc-linux-gnu"

%struct._zend_array = type { %struct._zend_refcounted_h, %union.anon.0, i32, %union.anon.1, i32, i32, i32, i32, i64, ptr }
%struct._zend_refcounted_h = type { i32, %union.anon }
%union.anon = type { i32 }
%union.anon.0 = type { i32 }
%union.anon.1 = type { ptr }
%struct._zval_struct = type { %union._zend_value, %union.anon.3, %union.anon.6 }
%union._zend_value = type { i64 }
%union.anon.3 = type { i32 }
%union.anon.6 = type { i32 }
%struct._Bucket = type { %struct._zval_struct, i64, ptr }
%struct._zend_class_entry = type { i8, ptr, %union.anon.9, i32, i32, i32, i32, ptr, ptr, ptr, %struct._zend_array, %struct._zend_array, %struct._zend_array, ptr, ptr, ptr, ptr, ptr, ptr, ptr, ptr, ptr, ptr, ptr, ptr, ptr, ptr, ptr, ptr, ptr, ptr, ptr, %union.anon.10, ptr, ptr, ptr, ptr, i32, i32, i32, i32, %union.anon.11, ptr, ptr, ptr, ptr, i32, ptr, ptr, %union.anon.12 }
%union.anon.9 = type { ptr }
%union.anon.10 = type { ptr }
%union.anon.11 = type { ptr }
%union.anon.12 = type { %struct.anon.13 }
%struct.anon.13 = type { ptr, i32, i32 }

; Function Attrs: nounwind uwtable
define internal void @preload_sort_classes(ptr noundef %0, i64 noundef %1, i64 noundef %2, ptr noundef %3, ptr noundef %4) #0 {
  %6 = alloca ptr, align 8
  %7 = alloca i64, align 8
  %8 = alloca i64, align 8
  %9 = alloca ptr, align 8
  %10 = alloca ptr, align 8
  %11 = alloca ptr, align 8
  %12 = alloca ptr, align 8
  %13 = alloca ptr, align 8
  %14 = alloca %struct._Bucket, align 8
  %15 = alloca ptr, align 8
  %16 = alloca ptr, align 8
  %17 = alloca i32, align 4
  %18 = alloca i32, align 4
  store ptr %0, ptr %6, align 8, !tbaa !40
  store i64 %1, ptr %7, align 8, !tbaa !56
  store i64 %2, ptr %8, align 8, !tbaa !56
  store ptr %3, ptr %9, align 8, !tbaa !40
  store ptr %4, ptr %10, align 8, !tbaa !40
  call void @llvm.lifetime.start.p0(i64 8, ptr %11) #19
  %19 = load ptr, ptr %6, align 8, !tbaa !40
  store ptr %19, ptr %11, align 8, !tbaa !278
  call void @llvm.lifetime.start.p0(i64 8, ptr %12) #19
  call void @llvm.lifetime.start.p0(i64 8, ptr %13) #19
  %20 = load ptr, ptr %11, align 8, !tbaa !278
  %21 = load i64, ptr %7, align 8, !tbaa !56
  %22 = getelementptr inbounds nuw %struct._Bucket, ptr %20, i64 %21
  store ptr %22, ptr %13, align 8, !tbaa !278
  call void @llvm.lifetime.start.p0(i64 32, ptr %14) #19
  call void @llvm.lifetime.start.p0(i64 8, ptr %15) #19
  call void @llvm.lifetime.start.p0(i64 8, ptr %16) #19
  br label %23

23:                                               ; preds = %138, %5
  %24 = load ptr, ptr %11, align 8, !tbaa !278
  %25 = load ptr, ptr %13, align 8, !tbaa !278
  %26 = icmp ult ptr %24, %25
  br i1 %26, label %27, label %141

27:                                               ; preds = %23
  br label %28

28:                                               ; preds = %135, %66, %27
  %29 = load ptr, ptr %11, align 8, !tbaa !278
  %30 = getelementptr inbounds nuw %struct._Bucket, ptr %29, i32 0, i32 0
  %31 = getelementptr inbounds nuw %struct._zval_struct, ptr %30, i32 0, i32 0
  %32 = load ptr, ptr %31, align 8, !tbaa !65
  store ptr %32, ptr %15, align 8, !tbaa !230
  %33 = load ptr, ptr %15, align 8, !tbaa !230
  %34 = getelementptr inbounds nuw %struct._zend_class_entry, ptr %33, i32 0, i32 2
  %35 = load ptr, ptr %34, align 8, !tbaa !65
  %36 = icmp ne ptr %35, null
  br i1 %36, label %37, label %76

37:                                               ; preds = %28
  %38 = load ptr, ptr %15, align 8, !tbaa !230
  %39 = getelementptr inbounds nuw %struct._zend_class_entry, ptr %38, i32 0, i32 4
  %40 = load i32, ptr %39, align 4, !tbaa !368
  %41 = and i32 %40, 8
  %42 = icmp ne i32 %41, 0
  br i1 %42, label %43, label %76

43:                                               ; preds = %37
  %44 = load ptr, ptr %15, align 8, !tbaa !230
  %45 = getelementptr inbounds nuw %struct._zend_class_entry, ptr %44, i32 0, i32 2
  %46 = load ptr, ptr %45, align 8, !tbaa !65
  store ptr %46, ptr %16, align 8, !tbaa !230
  %47 = load ptr, ptr %16, align 8, !tbaa !230
  %48 = getelementptr inbounds nuw %struct._zend_class_entry, ptr %47, i32 0, i32 0
  %49 = load i8, ptr %48, align 8, !tbaa !290
  %50 = sext i8 %49 to i32
  %51 = icmp eq i32 %50, 2
  br i1 %51, label %52, label %75

52:                                               ; preds = %43
  %53 = load ptr, ptr %11, align 8, !tbaa !278
  %54 = getelementptr inbounds %struct._Bucket, ptr %53, i64 1
  store ptr %54, ptr %12, align 8, !tbaa !278
  br label %55

55:                                               ; preds = %71, %52
  %56 = load ptr, ptr %12, align 8, !tbaa !278
  %57 = load ptr, ptr %13, align 8, !tbaa !278
  %58 = icmp ult ptr %56, %57
  br i1 %58, label %59, label %74

59:                                               ; preds = %55
  %60 = load ptr, ptr %16, align 8, !tbaa !230
  %61 = load ptr, ptr %12, align 8, !tbaa !278
  %62 = getelementptr inbounds nuw %struct._Bucket, ptr %61, i32 0, i32 0
  %63 = getelementptr inbounds nuw %struct._zval_struct, ptr %62, i32 0, i32 0
  %64 = load ptr, ptr %63, align 8, !tbaa !65
  %65 = icmp eq ptr %60, %64
  br i1 %65, label %66, label %71

66:                                               ; preds = %59
  %67 = load ptr, ptr %11, align 8, !tbaa !278
  call void @llvm.memcpy.p0.p0.i64(ptr align 8 %14, ptr align 8 %67, i64 32, i1 false), !tbaa.struct !462
  %68 = load ptr, ptr %11, align 8, !tbaa !278
  %69 = load ptr, ptr %12, align 8, !tbaa !278
  call void @llvm.memcpy.p0.p0.i64(ptr align 8 %68, ptr align 8 %69, i64 32, i1 false), !tbaa.struct !462
  %70 = load ptr, ptr %12, align 8, !tbaa !278
  call void @llvm.memcpy.p0.p0.i64(ptr align 8 %70, ptr align 8 %14, i64 32, i1 false), !tbaa.struct !462
  br label %28

71:                                               ; preds = %59
  %72 = load ptr, ptr %12, align 8, !tbaa !278
  %73 = getelementptr inbounds nuw %struct._Bucket, ptr %72, i32 1
  store ptr %73, ptr %12, align 8, !tbaa !278
  br label %55

74:                                               ; preds = %55
  br label %75

75:                                               ; preds = %74, %43
  br label %76

76:                                               ; preds = %75, %37, %28
  %77 = load ptr, ptr %15, align 8, !tbaa !230
  %78 = getelementptr inbounds nuw %struct._zend_class_entry, ptr %77, i32 0, i32 37
  %79 = load i32, ptr %78, align 8, !tbaa !370
  %80 = icmp ne i32 %79, 0
  br i1 %80, label %81, label %138

81:                                               ; preds = %76
  %82 = load ptr, ptr %15, align 8, !tbaa !230
  %83 = getelementptr inbounds nuw %struct._zend_class_entry, ptr %82, i32 0, i32 4
  %84 = load i32, ptr %83, align 4, !tbaa !368
  %85 = and i32 %84, 8
  %86 = icmp ne i32 %85, 0
  br i1 %86, label %87, label %138

87:                                               ; preds = %81
  call void @llvm.lifetime.start.p0(i64 4, ptr %17) #19
  store i32 0, ptr %17, align 4, !tbaa !4
  store i32 0, ptr %17, align 4, !tbaa !4
  br label %88

88:                                               ; preds = %131, %87
  %89 = load i32, ptr %17, align 4, !tbaa !4
  %90 = load ptr, ptr %15, align 8, !tbaa !230
  %91 = getelementptr inbounds nuw %struct._zend_class_entry, ptr %90, i32 0, i32 37
  %92 = load i32, ptr %91, align 8, !tbaa !370
  %93 = icmp ult i32 %89, %92
  br i1 %93, label %94, label %134

94:                                               ; preds = %88
  %95 = load ptr, ptr %15, align 8, !tbaa !230
  %96 = getelementptr inbounds nuw %struct._zend_class_entry, ptr %95, i32 0, i32 41
  %97 = load ptr, ptr %96, align 8, !tbaa !65
  %98 = load i32, ptr %17, align 4, !tbaa !4
  %99 = zext i32 %98 to i64
  %100 = getelementptr inbounds nuw ptr, ptr %97, i64 %99
  %101 = load ptr, ptr %100, align 8, !tbaa !230
  store ptr %101, ptr %16, align 8, !tbaa !230
  %102 = load ptr, ptr %16, align 8, !tbaa !230
  %103 = getelementptr inbounds nuw %struct._zend_class_entry, ptr %102, i32 0, i32 0
  %104 = load i8, ptr %103, align 8, !tbaa !290
  %105 = sext i8 %104 to i32
  %106 = icmp eq i32 %105, 2
  br i1 %106, label %107, label %130

107:                                              ; preds = %94
  %108 = load ptr, ptr %11, align 8, !tbaa !278
  %109 = getelementptr inbounds %struct._Bucket, ptr %108, i64 1
  store ptr %109, ptr %12, align 8, !tbaa !278
  br label %110

110:                                              ; preds = %126, %107
  %111 = load ptr, ptr %12, align 8, !tbaa !278
  %112 = load ptr, ptr %13, align 8, !tbaa !278
  %113 = icmp ult ptr %111, %112
  br i1 %113, label %114, label %129

114:                                              ; preds = %110
  %115 = load ptr, ptr %16, align 8, !tbaa !230
  %116 = load ptr, ptr %12, align 8, !tbaa !278
  %117 = getelementptr inbounds nuw %struct._Bucket, ptr %116, i32 0, i32 0
  %118 = getelementptr inbounds nuw %struct._zval_struct, ptr %117, i32 0, i32 0
  %119 = load ptr, ptr %118, align 8, !tbaa !65
  %120 = icmp eq ptr %115, %119
  br i1 %120, label %121, label %126

121:                                              ; preds = %114
  %122 = load ptr, ptr %11, align 8, !tbaa !278
  call void @llvm.memcpy.p0.p0.i64(ptr align 8 %14, ptr align 8 %122, i64 32, i1 false), !tbaa.struct !462
  %123 = load ptr, ptr %11, align 8, !tbaa !278
  %124 = load ptr, ptr %12, align 8, !tbaa !278
  call void @llvm.memcpy.p0.p0.i64(ptr align 8 %123, ptr align 8 %124, i64 32, i1 false), !tbaa.struct !462
  %125 = load ptr, ptr %12, align 8, !tbaa !278
  call void @llvm.memcpy.p0.p0.i64(ptr align 8 %125, ptr align 8 %14, i64 32, i1 false), !tbaa.struct !462
  store i32 4, ptr %18, align 4
  br label %135

126:                                              ; preds = %114
  %127 = load ptr, ptr %12, align 8, !tbaa !278
  %128 = getelementptr inbounds nuw %struct._Bucket, ptr %127, i32 1
  store ptr %128, ptr %12, align 8, !tbaa !278
  br label %110

129:                                              ; preds = %110
  br label %130

130:                                              ; preds = %129, %94
  br label %131

131:                                              ; preds = %130
  %132 = load i32, ptr %17, align 4, !tbaa !4
  %133 = add i32 %132, 1
  store i32 %133, ptr %17, align 4, !tbaa !4
  br label %88

134:                                              ; preds = %88
  store i32 0, ptr %18, align 4
  br label %135

135:                                              ; preds = %134, %121
  call void @llvm.lifetime.end.p0(i64 4, ptr %17) #19
  %136 = load i32, ptr %18, align 4
  switch i32 %136, label %142 [
    i32 0, label %137
    i32 4, label %28
  ]

137:                                              ; preds = %135
  br label %138

138:                                              ; preds = %137, %81, %76
  %139 = load ptr, ptr %11, align 8, !tbaa !278
  %140 = getelementptr inbounds nuw %struct._Bucket, ptr %139, i32 1
  store ptr %140, ptr %11, align 8, !tbaa !278
  br label %23

141:                                              ; preds = %23
  call void @llvm.lifetime.end.p0(i64 8, ptr %16) #19
  call void @llvm.lifetime.end.p0(i64 8, ptr %15) #19
  call void @llvm.lifetime.end.p0(i64 32, ptr %14) #19
  call void @llvm.lifetime.end.p0(i64 8, ptr %13) #19
  call void @llvm.lifetime.end.p0(i64 8, ptr %12) #19
  call void @llvm.lifetime.end.p0(i64 8, ptr %11) #19
  ret void

142:                                              ; preds = %135
  unreachable
}