; Function Attrs: nofree norecurse nosync nounwind memory(read, argmem: readwrite, inaccessiblemem: none) uwtable
define internal void @preload_sort_classes(ptr noundef captures(address) %0, i64 noundef %1, i64 %2, ptr readnone captures(none) %3, ptr readnone captures(none) %4) #23 {
  %6 = alloca %struct._Bucket, align 8
  %7 = getelementptr inbounds nuw %struct._Bucket, ptr %0, i64 %1
  call void @llvm.lifetime.start.p0(i64 32, ptr nonnull %6)
  %.not59 = icmp eq i64 %1, 0
  br i1 %.not59, label %._crit_edge, label %.preheader52

.preheader52:                                     ; preds = %5, %.thread
  %.04057 = phi ptr [ %40, %.thread ], [ %0, %5 ]
  br label %8

8:                                                ; preds = %.backedge, %.preheader52
  %9 = load ptr, ptr %.04057, align 8, !tbaa !64
  %10 = getelementptr inbounds nuw i8, ptr %9, i64 16
  %11 = load ptr, ptr %10, align 8, !tbaa !64
  %.not = icmp eq ptr %11, null
  br i1 %.not, label %.loopexit51, label %12

12:                                               ; preds = %8
  %13 = getelementptr inbounds nuw i8, ptr %9, i64 28
  %14 = load i32, ptr %13, align 4, !tbaa !322
  %15 = and i32 %14, 8
  %.not43 = icmp eq i32 %15, 0
  br i1 %.not43, label %.loopexit51, label %16

16:                                               ; preds = %12
  %17 = load i8, ptr %11, align 8, !tbaa !267
  %18 = icmp eq i8 %17, 2
  br i1 %18, label %.preheader50, label %.loopexit51

.preheader50:                                     ; preds = %16, %20
  %.040.pn46 = phi ptr [ %.041, %20 ], [ %.04057, %16 ]
  %.041 = getelementptr inbounds nuw i8, ptr %.040.pn46, i64 32
  %19 = icmp ult ptr %.041, %7
  br i1 %19, label %20, label %.loopexit51

20:                                               ; preds = %.preheader50
  %21 = load ptr, ptr %.041, align 8, !tbaa !64
  %22 = icmp eq ptr %11, %21
  br i1 %22, label %.backedge, label %.preheader50

.backedge:                                        ; preds = %20, %37
  %.041.lcssa65.sink67 = phi ptr [ %.1, %37 ], [ %.041, %20 ]
  call void @llvm.memcpy.p0.p0.i64(ptr noundef nonnull align 8 dereferenceable(32) %6, ptr noundef nonnull align 8 dereferenceable(32) %.04057, i64 32, i1 false)
  tail call void @llvm.memcpy.p0.p0.i64(ptr noundef nonnull align 8 dereferenceable(32) %.04057, ptr noundef nonnull align 8 dereferenceable(32) %.041.lcssa65.sink67, i64 32, i1 false)
  call void @llvm.memcpy.p0.p0.i64(ptr noundef nonnull align 8 dereferenceable(32) %.041.lcssa65.sink67, ptr noundef nonnull align 8 dereferenceable(32) %6, i64 32, i1 false)
  br label %8

.loopexit51:                                      ; preds = %.preheader50, %16, %12, %8
  %23 = getelementptr inbounds nuw i8, ptr %9, i64 424
  %24 = load i32, ptr %23, align 8, !tbaa !327
  %.not44 = icmp eq i32 %24, 0
  br i1 %.not44, label %.thread, label %25

25:                                               ; preds = %.loopexit51
  %26 = getelementptr inbounds nuw i8, ptr %9, i64 28
  %27 = load i32, ptr %26, align 4, !tbaa !322
  %28 = and i32 %27, 8
  %.not45 = icmp eq i32 %28, 0
  br i1 %.not45, label %.thread, label %.preheader49

.preheader49:                                     ; preds = %25
  %29 = getelementptr inbounds nuw i8, ptr %9, i64 440
  %30 = load ptr, ptr %29, align 8, !tbaa !64
  %wide.trip.count = zext i32 %24 to i64
  br label %31

31:                                               ; preds = %.preheader49, %.loopexit
  %indvars.iv = phi i64 [ 0, %.preheader49 ], [ %indvars.iv.next, %.loopexit ]
  %32 = getelementptr inbounds nuw ptr, ptr %30, i64 %indvars.iv
  %33 = load ptr, ptr %32, align 8, !tbaa !228
  %34 = load i8, ptr %33, align 8, !tbaa !267
  %35 = icmp eq i8 %34, 2
  br i1 %35, label %.preheader, label %.loopexit

.preheader:                                       ; preds = %31, %37
  %.040.pn = phi ptr [ %.1, %37 ], [ %.04057, %31 ]
  %.1 = getelementptr inbounds nuw i8, ptr %.040.pn, i64 32
  %36 = icmp ult ptr %.1, %7
  br i1 %36, label %37, label %.loopexit

37:                                               ; preds = %.preheader
  %38 = load ptr, ptr %.1, align 8, !tbaa !64
  %39 = icmp eq ptr %33, %38
  br i1 %39, label %.backedge, label %.preheader

.loopexit:                                        ; preds = %.preheader, %31
  %indvars.iv.next = add nuw nsw i64 %indvars.iv, 1
  %exitcond.not = icmp eq i64 %indvars.iv.next, %wide.trip.count
  br i1 %exitcond.not, label %.thread, label %31

.thread:                                          ; preds = %25, %.loopexit51, %.loopexit
  %40 = getelementptr inbounds nuw i8, ptr %.04057, i64 32
  %41 = icmp ult ptr %40, %7
  br i1 %41, label %.preheader52, label %._crit_edge

._crit_edge:                                      ; preds = %.thread, %5
  call void @llvm.lifetime.end.p0(i64 32, ptr nonnull %6)
  ret void
}